; Function Attrs: mustprogress nofree norecurse nosync nounwind willreturn memory(readwrite, inaccessiblemem: none) uwtable
define void @_ZN10open_spiel3nim8NimState10UndoActionEil(ptr noundef nonnull align 8 captures(none) dereferenceable(108) initializes((88, 96)) %0, i32 noundef %1, i64 noundef %2) unnamed_addr #9 align 2 {
  %4 = getelementptr inbounds nuw i8, ptr %0, i64 60
  %5 = load i32, ptr %4, align 4
  %6 = sext i32 %5 to i64
  %7 = srem i64 %2, %6
  %8 = sdiv i64 %2, %6
  %9 = trunc i64 %8 to i32
  %.sroa.2.0.extract.trunc = add i32 %9, 1
  %10 = getelementptr inbounds nuw i8, ptr %0, i64 64
  %11 = load ptr, ptr %10, align 8
  %12 = shl nsw i64 %7, 2
  %13 = getelementptr inbounds i8, ptr %11, i64 %12
  %14 = load i32, ptr %13, align 4
  %15 = add nsw i32 %.sroa.2.0.extract.trunc, %14
  store i32 %15, ptr %13, align 4
  %16 = getelementptr inbounds nuw i8, ptr %0, i64 88
  store i32 %1, ptr %16, align 8
  %17 = getelementptr inbounds nuw i8, ptr %0, i64 92
  store i32 -3, ptr %17, align 4
  %18 = getelementptr inbounds nuw i8, ptr %0, i64 96
  %19 = load i32, ptr %18, align 8
  %20 = add nsw i32 %19, -1
  store i32 %20, ptr %18, align 8
  %21 = getelementptr inbounds nuw i8, ptr %0, i64 40
  %22 = load ptr, ptr %21, align 8
  %23 = getelementptr inbounds i8, ptr %22, i64 -16
  store ptr %23, ptr %21, align 8
  %24 = getelementptr inbounds nuw i8, ptr %0, i64 56
  %25 = load i32, ptr %24, align 8
  %26 = add nsw i32 %25, -1
  store i32 %26, ptr %24, align 8
  ret void
}